(lp0
I1
aI0
aI1
aI0
aI1
aI2
aI12
aI13
aI12
aI11
aI12
aI11
aI10
aI9
aI10
aI20
aI21
aI22
aI21
aI22
aI21
aI20
aI21
aI22
aI21
aI22
aI21
aI20
aI21
aI20
aI21
aI20
aI19
aI20
aI19
aI18
aI17
aI18
aI17
aI16
aI15
aI16
aI15
aI14
aI15
aI16
aI15
aI16
aI15
aI14
aI15
aI14
aI15
aI14
aI15
aI14
aI15
aI16
aI15
aI16
aI15
aI16
aI15
aI14
aI15
aI16
aI15
aI14
aI15
aI14
aI15
aI16
aI15
aI16
aI15
aI16
aI17
aI16
aI15
aI16
aI15
aI14
aI15
aI14
aI15
aI14
aI13
aI14
aI24
aI25
aI26
aI25
aI26
aI25
aI26
aI27
aI28
aI27
aI28
aI27
aI26
aI25
aI26
aI27
aI26
aI27
aI26
aI36
aI37
aI36
aI35
aI36
aI35
aI36
aI35
aI36
aI35
aI34
aI35
aI36
aI37
aI38
aI48
aI47
aI48
aI49
aI48
aI47
aI46
aI45
aI46
aI56
aI57
aI56
aI55
aI56
aI55
aI56
aI57
aI58
aI57
aI56
aI57
aI56
aI57
aI56
aI55
aI56
aI55
aI54
aI55
aI54
aI55
aI54
aI55
aI54
aI53
aI52
aI53
aI52
aI53
aI54
aI53
aI54
aI53
aI52
aI53
aI54
aI55
aI54
aI55
aI54
aI55
aI56
aI55
aI56
aI55
aI56
aI57
aI58
aI57
aI58
aI59
aI60
aI61
aI60
aI61
aI60
aI59
aI60
aI59
aI60
aI59
aI58
aI59
aI58
aI59
aI60
aI59
aI58
aI59
aI60
aI59
aI60
aI59
aI60
aI59
aI60
aI61
aI62
aI63
aI62
aI61
aI60
aI61
aI60
aI59
aI60
aI59
aI58
aI59
aI60
aI61
aI60
aI59
aI58
aI59
aI58
aI59
aI60
aI59
aI60
aI61
aI60
aI59
aI58
aI59
aI58
aI59
aI58
aI59
aI58
aI57
aI58
aI59
aI60
aI59
aI58
aI59
aI60
aI59
aI60
aI59
aI60
aI59
aI58
aI59
aI60
aI59
aI58
aI57
aI58
aI59
aI60
aI59
aI60
aI61
aI60
aI59
aI60
aI59
aI60
aI61
aI60
aI61
aI62
aI61
aI60
aI61
aI60
aI59
aI58
aI59
aI58
aI59
aI60
aI59
aI58
aI59
aI60
aI59
aI60
aI59
aI60
aI59
aI58
aI59
aI60
aI59
aI58
aI59
aI58
aI57
aI58
aI57
aI58
aI57
aI58
aI59
aI58
aI59
aI60
aI59
aI60
aI59
aI60
aI61
aI60
aI59
aI58
aI57
aI58
aI57
aI56
aI55
aI56
aI55
aI56
aI57
aI56
aI55
aI54
aI55
aI54
aI55
aI54
aI55
aI54
aI55
aI56
aI55
aI54
aI53
aI54
aI53
aI54
aI53
aI54
aI53
aI52
aI53
aI54
aI53
aI54
aI53
aI54
aI64
aI63
aI64
aI63
aI64
aI74
aI75
aI74
aI75
aI76
aI75
aI76
aI75
aI76
aI77
aI76
aI75
aI76
aI75
aI74
aI75
aI74
aI75
aI76
aI86
aI87
aI86
aI87
aI86
aI96
a.