(lp0
I1
aI0
aI1
aI0
aI-1
aI-2
aI-1
aI-2
aI-1
aI-2
aI-1
aI-2
aI-1
aI-2
aI-1
aI0
aI-1
aI0
aI-1
aI-2
aI-3
aI-2
aI-1
aI-2
aI-1
aI0
aI1
aI2
aI1
aI0
aI1
aI0
aI-1
aI0
aI1
aI0
aI1
aI2
aI1
aI0
aI-1
aI0
aI-1
aI0
aI-1
aI-2
aI-1
aI-2
aI-1
aI0
aI-1
aI0
aI1
aI0
aI1
aI2
aI1
aI2
aI3
aI2
aI3
aI2
aI3
aI2
aI1
aI0
aI1
aI0
aI-1
aI-2
aI-1
aI-2
aI-1
aI0
aI-1
aI-2
aI-1
aI-2
aI-1
aI-2
aI-3
aI-2
aI-3
aI-4
aI-3
aI-4
aI-3
aI-4
aI-3
aI7
aI8
aI9
aI10
aI11
aI10
aI11
aI12
aI11
aI12
aI11
aI12
aI11
aI12
aI13
aI12
aI11
aI12
aI13
aI14
aI13
aI14
aI13
aI14
aI13
aI12
aI11
aI12
aI11
aI10
aI9
aI10
aI11
aI10
aI11
aI10
aI9
aI10
aI9
aI10
aI9
aI8
aI7
aI6
aI5
aI6
aI7
aI6
aI5
aI4
aI5
aI6
aI5
aI6
aI7
aI6
aI7
aI8
aI7
aI6
aI7
aI6
aI5
aI6
aI5
aI4
aI5
aI6
aI7
aI6
aI5
aI6
aI5
aI4
aI3
aI4
aI5
aI4
aI5
aI6
aI7
aI8
aI7
aI6
aI16
aI17
aI16
aI15
aI16
aI17
aI16
aI17
aI16
aI15
aI16
aI15
aI16
aI15
aI14
aI13
aI14
aI13
aI12
aI11
aI12
aI11
aI12
aI11
aI10
aI9
aI10
aI11
aI10
aI11
aI21
aI22
aI23
aI22
aI23
aI33
aI34
aI33
aI34
aI33
aI32
aI31
aI32
aI31
aI30
aI31
aI32
aI31
aI32
aI31
aI32
aI33
aI32
aI31
aI32
aI31
aI32
aI31
aI32
aI31
aI32
aI31
aI32
aI31
aI32
aI31
aI32
aI33
aI32
aI31
aI30
aI31
aI30
aI31
aI32
aI31
aI30
aI31
aI30
aI31
aI30
aI31
aI30
aI31
aI30
aI31
aI30
aI31
aI30
aI31
aI32
aI31
aI30
aI31
aI30
aI31
aI30
aI29
aI30
aI29
aI30
aI29
aI30
aI29
aI28
aI29
aI28
aI29
aI30
aI31
aI30
aI29
aI30
aI31
aI32
aI31
aI32
aI31
aI32
aI33
aI32
aI33
aI32
aI33
aI32
aI31
aI32
aI33
aI34
aI33
aI34
aI35
aI34
aI35
aI36
aI35
aI36
aI35
aI34
aI35
aI34
aI35
aI34
aI33
aI34
aI33
aI32
aI33
aI34
aI33
aI32
aI33
aI34
aI33
aI34
aI33
aI34
aI33
aI32
aI33
aI32
aI33
aI32
aI33
aI32
aI33
aI32
aI33
aI34
aI35
aI34
aI35
aI34
aI35
aI34
aI35
aI36
aI35
aI34
aI35
aI34
aI35
aI34
aI35
aI34
aI35
aI36
aI37
aI38
aI39
aI38
aI37
aI38
aI37
aI38
aI37
aI38
aI39
aI38
aI37
aI38
aI39
aI38
aI37
aI38
aI37
aI38
aI39
aI38
aI39
aI38
aI39
aI38
aI37
aI38
aI39
aI38
aI39
aI40
aI39
aI40
aI39
aI38
aI39
aI38
aI39
aI40
aI39
aI40
aI41
aI40
aI39
aI38
aI37
aI38
aI37
aI38
aI37
aI36
aI37
aI36
aI35
aI36
aI37
aI38
aI37
aI38
aI39
aI38
aI39
aI38
aI37
aI38
aI37
aI36
aI35
aI36
aI37
aI38
aI37
aI38
a.