(lp0
I1
aI0
aI-1
aI0
aI-1
aI0
aI-1
aI0
aI-1
aI0
aI-1
aI0
aI-1
aI0
aI1
aI0
aI1
aI0
aI1
aI0
aI1
aI0
aI1
aI2
aI3
aI4
aI3
aI2
aI3
aI2
aI1
aI11
aI12
aI13
aI12
aI11
aI12
aI13
aI12
aI11
aI12
aI11
aI12
aI11
aI12
aI11
aI12
aI11
aI12
aI11
aI10
aI11
aI12
aI11
aI10
aI11
aI21
aI22
aI21
aI22
aI21
aI22
aI21
aI22
aI21
aI31
aI32
aI31
aI30
aI29
aI30
aI29
aI30
aI29
aI30
aI31
aI32
aI31
aI30
aI29
aI30
aI29
aI30
aI29
aI30
aI29
aI30
aI29
aI30
aI29
aI30
aI31
aI30
aI29
aI28
aI29
aI28
aI29
aI28
aI29
aI30
aI29
aI30
aI29
aI28
aI27
aI28
aI38
aI39
aI38
aI39
aI40
aI39
aI40
aI41
aI42
aI43
aI42
aI43
aI44
aI43
aI42
aI43
aI44
aI54
aI55
aI56
aI57
aI56
aI55
aI56
aI57
aI56
aI55
aI56
aI55
aI54
aI53
aI52
aI51
aI50
aI51
aI50
aI51
aI52
aI53
aI52
aI53
aI54
aI53
aI54
aI53
aI54
aI55
aI54
aI55
aI54
aI53
aI52
aI53
aI52
aI53
aI52
aI51
aI50
aI51
aI50
aI51
aI50
aI51
aI52
aI53
aI52
aI53
aI52
aI53
aI52
aI51
aI52
aI53
aI52
aI51
aI52
aI51
aI52
aI51
aI52
aI53
aI52
aI53
aI52
aI53
aI52
aI53
aI54
aI53
aI52
aI53
aI54
aI53
aI54
aI55
aI54
aI55
aI56
aI55
aI56
aI57
aI56
aI55
aI56
aI55
aI56
aI55
aI56
aI55
aI54
aI55
aI54
aI53
aI54
aI53
aI54
aI55
aI54
aI55
aI56
aI55
aI56
aI55
aI54
aI55
aI56
aI55
aI56
aI55
aI54
aI55
aI56
aI57
aI56
aI57
aI58
aI57
aI56
aI57
aI58
aI59
aI58
aI57
aI58
aI57
aI56
aI57
aI58
aI57
aI58
aI59
aI58
aI57
aI58
aI57
aI58
aI57
aI58
aI59
aI58
aI57
aI58
aI59
aI58
aI59
aI58
aI57
aI56
aI57
aI56
aI55
aI56
aI57
aI56
aI55
aI56
aI57
aI58
aI59
aI58
aI59
aI58
aI59
aI58
aI59
aI58
aI57
aI56
aI55
aI56
aI55
aI54
aI55
aI56
aI55
aI56
aI57
aI56
aI57
aI56
aI55
aI54
aI55
aI54
aI55
aI54
aI55
aI54
aI55
aI54
aI55
aI54
aI53
aI54
aI53
aI54
aI53
aI54
aI55
aI54
aI55
aI54
aI53
aI54
aI53
aI52
aI53
aI52
aI53
aI52
aI53
aI52
aI51
aI50
aI51
aI50
aI51
aI52
aI51
aI52
aI53
aI52
aI51
aI52
aI51
aI52
aI51
aI50
aI51
aI50
aI51
aI50
aI49
aI50
aI49
aI50
aI51
aI50
aI51
aI50
aI51
aI50
aI51
aI50
aI51
aI50
aI51
aI50
aI51
aI50
aI51
aI52
aI53
aI52
aI51
aI52
aI53
aI52
aI53
aI52
aI53
aI54
aI53
aI52
aI53
aI52
aI53
aI52
aI51
aI52
aI62
aI63
aI62
aI63
aI62
aI61
aI62
aI63
aI64
aI63
aI62
aI63
aI64
aI65
aI64
aI63
aI64
aI63
aI62
aI63
aI62
aI63
aI64
aI65
aI64
aI65
aI66
aI65
aI66
aI67
aI66
aI65
aI66
aI67
aI68
aI67
aI77
a.