(lp0
I1
aI2
aI1
aI2
aI1
aI0
aI10
aI11
aI10
aI11
aI10
aI9
aI10
aI9
aI10
aI11
aI12
aI11
aI12
aI11
aI10
aI11
aI12
aI11
aI12
aI13
aI12
aI11
aI10
aI11
aI10
aI11
aI12
aI13
aI14
aI15
aI14
aI13
aI14
aI13
aI14
aI15
aI14
aI15
aI14
aI15
aI14
aI15
aI14
aI15
aI16
aI15
aI16
aI17
aI16
aI17
aI18
aI17
aI18
aI17
aI16
aI17
aI16
aI17
aI16
aI17
aI16
aI17
aI16
aI15
aI14
aI15
aI14
aI15
aI16
aI15
aI16
aI26
aI25
aI24
aI25
aI26
aI25
aI24
aI25
aI26
aI25
aI24
aI25
aI24
aI25
aI26
aI25
aI26
aI25
aI24
aI23
aI22
aI32
aI33
aI32
aI33
aI32
aI31
aI32
aI31
aI32
aI31
aI32
aI31
aI30
aI31
aI30
aI29
aI30
aI29
aI30
aI31
aI32
aI33
aI32
aI33
aI32
aI31
aI32
aI33
aI32
aI33
aI32
aI33
aI43
aI44
aI45
aI46
aI45
aI44
aI43
aI44
aI45
aI55
aI56
aI55
aI54
aI55
aI54
aI53
aI54
aI53
aI54
aI53
aI52
aI53
aI63
aI64
aI65
aI64
aI63
aI64
aI63
aI62
aI63
aI73
aI74
aI73
aI74
aI73
aI83
aI84
aI83
aI84
aI85
aI84
aI85
aI95
aI96
aI97
aI98
aI99
aI109
aI110
aI111
aI110
aI109
aI119
aI120
aI119
aI120
aI119
aI120
aI119
aI129
aI128
aI129
aI130
aI129
aI139
aI140
aI139
aI138
aI139
aI138
aI139
aI140
aI139
aI138
aI139
aI140
aI139
aI140
aI141
aI140
aI141
aI140
aI141
aI140
aI141
aI142
aI141
aI142
aI143
aI144
aI145
aI144
aI143
aI144
aI143
aI144
aI145
aI144
aI143
aI144
aI145
aI146
aI147
aI146
aI147
aI146
aI147
aI146
aI147
aI146
aI147
aI148
aI147
aI148
aI147
aI148
aI147
aI146
aI147
aI146
aI145
aI144
aI143
aI144
aI143
aI144
aI145
aI144
aI145
aI144
aI143
aI142
aI143
aI144
aI143
aI142
aI141
aI142
aI143
aI153
aI154
aI153
aI154
aI155
aI165
a.