(lp0
I1
aI2
aI1
aI2
aI3
aI2
aI3
aI2
aI3
aI4
aI3
aI4
aI3
aI2
aI3
aI2
aI3
aI2
aI3
aI4
aI3
aI2
aI1
aI2
aI3
aI2
aI3
aI2
aI3
aI2
aI1
aI0
aI-1
aI9
aI10
aI9
aI10
aI9
aI10
aI11
aI10
aI9
aI10
aI11
aI12
aI11
aI12
aI11
aI10
aI9
aI10
aI9
aI8
aI9
aI8
aI9
aI8
aI7
aI17
aI18
aI17
aI16
aI17
aI18
aI17
aI18
aI17
aI16
aI17
aI18
aI19
aI20
aI19
aI20
aI19
aI18
aI17
aI18
aI19
aI20
aI19
aI18
aI17
aI18
aI19
aI18
aI17
aI18
aI17
aI16
aI17
aI16
aI15
aI14
aI13
aI14
aI15
aI16
aI15
aI16
aI15
aI16
aI17
aI16
aI17
aI16
aI17
aI16
aI17
aI18
aI17
aI16
aI15
aI16
aI17
aI16
aI17
aI16
aI17
aI16
aI15
aI16
aI15
aI14
aI15
aI14
aI13
aI14
aI15
aI14
aI13
aI14
aI13
aI12
aI13
aI12
aI13
aI12
aI11
aI12
aI11
aI12
aI11
aI10
aI11
aI12
aI11
aI12
aI11
aI12
aI11
aI10
aI11
aI12
aI11
aI10
aI11
aI12
aI11
aI12
aI11
aI10
aI9
aI10
aI11
aI10
aI11
aI10
aI11
aI10
aI11
aI12
aI11
aI12
aI13
aI12
aI13
aI12
aI13
aI14
aI13
aI14
aI15
aI14
aI15
aI14
aI15
aI14
aI13
aI12
aI13
aI12
aI11
aI12
aI13
aI14
aI13
aI12
aI13
aI12
aI11
aI12
aI22
aI23
aI24
aI23
aI22
aI23
aI22
aI21
aI20
aI21
aI20
aI19
aI20
aI19
aI20
aI30
aI31
aI30
aI31
aI30
aI29
aI30
aI31
aI30
aI31
aI30
aI31
aI30
aI31
aI32
aI31
aI32
aI31
aI30
aI31
aI30
aI31
aI30
aI29
aI28
aI29
aI28
aI29
aI28
aI29
aI28
aI27
aI28
aI27
aI28
aI27
aI28
aI29
aI30
aI29
aI30
aI29
aI39
aI40
aI39
aI40
aI41
aI40
aI41
aI42
aI43
aI42
aI43
aI44
aI43
aI44
aI43
aI44
aI45
aI44
aI43
aI53
aI52
aI53
aI52
aI53
aI52
aI53
aI54
aI53
aI54
aI55
aI54
aI55
aI54
aI55
aI56
aI57
aI67
aI66
aI65
aI64
aI65
aI66
aI67
aI66
aI67
aI66
aI67
aI68
aI67
aI68
aI69
aI68
aI67
aI68
aI67
aI68
aI69
aI68
aI69
aI79
aI78
aI79
aI78
aI77
aI76
aI75
aI76
aI75
aI74
aI75
aI74
aI75
aI74
aI75
aI76
aI75
aI76
aI77
aI76
aI75
aI76
aI75
aI76
aI77
aI87
aI86
aI87
aI86
aI87
aI86
aI87
aI86
aI87
aI97
aI98
aI97
aI96
aI97
aI96
aI97
aI107
aI108
aI109
aI108
aI109
aI108
aI107
aI117
aI118
aI117
aI118
aI117
aI116
aI115
aI125
a.