(lp0
I-1
aI-2
aI-3
aI-2
aI-3
aI-4
aI-3
aI-2
aI-3
aI-4
aI-3
aI-2
aI-1
aI-2
aI-3
aI-4
aI-3
aI-2
aI-1
aI-2
aI-1
aI0
aI-1
aI0
aI-1
aI-2
aI-1
aI-2
aI-1
aI-2
aI-1
aI-2
aI-1
aI-2
aI-1
aI-2
aI-1
aI-2
aI-1
aI9
aI10
aI9
aI10
aI11
aI10
aI11
aI10
aI11
aI21
aI22
aI23
aI22
aI23
aI24
aI23
aI24
aI23
aI24
aI23
aI24
aI23
aI22
aI23
aI22
aI23
aI22
aI23
aI24
aI23
aI33
aI34
aI35
aI36
aI35
aI36
aI35
aI45
aI44
aI43
aI44
aI43
aI42
aI43
aI44
aI43
aI44
aI45
aI44
aI45
aI46
aI45
aI44
aI43
aI44
aI45
aI55
aI56
aI55
aI54
aI55
aI54
aI55
aI54
aI55
aI56
aI57
aI58
aI57
aI56
aI55
aI56
aI57
aI56
aI57
aI58
aI57
aI58
aI57
aI56
aI55
aI54
aI53
aI54
aI55
aI54
aI55
aI54
aI55
aI54
aI55
aI56
aI66
aI67
aI68
aI67
aI68
aI67
aI68
aI69
aI68
aI69
aI70
aI71
aI72
aI71
aI72
aI73
aI74
aI73
aI74
aI73
aI74
aI75
aI76
aI75
aI74
aI75
aI76
aI75
aI76
aI77
aI76
aI77
aI78
aI77
aI76
aI75
aI76
aI75
aI74
aI75
aI85
aI84
aI85
aI84
aI85
aI84
aI83
aI84
aI83
aI82
aI83
aI82
aI83
aI84
aI83
aI82
aI83
aI84
aI83
aI84
aI83
aI84
aI83
aI84
aI85
aI84
aI85
aI84
aI85
aI86
aI85
aI86
aI85
aI86
aI85
aI84
aI83
aI84
aI85
aI84
aI85
aI86
aI87
aI86
aI87
aI86
aI87
aI86
aI85
aI86
aI85
aI86
aI85
aI86
aI87
aI86
aI87
aI88
aI87
aI97
aI96
aI97
aI98
aI99
aI98
aI97
aI96
aI97
aI96
aI97
aI96
aI97
aI98
aI97
aI98
aI97
aI98
aI97
aI98
aI99
aI98
aI97
aI98
aI99
aI100
aI99
aI100
aI99
aI100
aI99
aI100
aI101
aI102
aI101
aI100
aI101
aI100
aI101
aI100
aI99
aI100
aI99
aI100
aI99
aI100
aI99
aI98
aI99
aI98
aI97
aI96
aI97
aI96
aI95
aI94
aI95
aI94
aI95
aI96
aI95
aI96
aI95
aI94
aI93
aI94
aI93
aI92
aI93
aI94
aI93
aI94
aI93
aI94
aI93
aI94
aI95
aI94
aI95
aI96
aI95
aI94
aI93
aI94
aI95
aI96
aI97
aI96
aI95
aI94
aI93
aI94
aI93
aI94
aI93
aI94
aI93
aI92
aI91
aI92
aI91
aI92
aI91
aI92
aI91
aI90
aI91
aI92
aI91
aI92
aI91
aI92
aI93
aI92
aI91
aI92
aI91
aI92
aI91
aI92
aI91
aI90
aI91
aI92
aI91
aI92
aI93
aI94
aI95
aI94
aI93
aI94
aI95
aI94
aI95
aI94
aI93
aI94
aI93
aI92
aI91
aI92
aI91
aI92
aI91
aI92
aI91
aI90
aI91
aI90
aI89
aI90
aI89
aI90
aI91
aI90
aI91
aI90
aI91
aI92
aI91
aI92
aI91
aI92
aI93
aI92
aI93
aI92
aI93
aI92
aI91
aI92
aI91
aI92
aI91
aI92
a.