(lp0
I1
aI0
aI-1
aI0
aI-1
aI0
aI1
aI2
aI1
aI0
aI1
aI0
aI1
aI0
aI1
aI0
aI-1
aI-2
aI-1
aI-2
aI-3
aI-2
aI-3
aI-2
aI-1
aI-2
aI-1
aI0
aI1
aI0
aI-1
aI0
aI-1
aI0
aI-1
aI0
aI1
aI2
aI1
aI0
aI1
aI0
aI1
aI2
aI1
aI2
aI1
aI0
aI1
aI2
aI1
aI0
aI1
aI2
aI1
aI2
aI3
aI2
aI3
aI4
aI3
aI4
aI5
aI4
aI5
aI4
aI5
aI4
aI5
aI6
aI5
aI6
aI7
aI6
aI5
aI4
aI3
aI4
aI5
aI4
aI3
aI2
aI3
aI2
aI1
aI2
aI1
aI0
aI1
aI2
aI3
aI2
aI3
aI2
aI3
aI2
aI3
aI2
aI1
aI2
aI3
aI4
aI3
aI2
aI1
aI0
aI1
aI0
aI1
aI0
aI1
aI0
aI-1
aI0
aI1
aI0
aI1
aI2
aI3
aI2
aI1
aI0
aI-1
aI0
aI1
aI0
aI1
aI2
aI3
aI2
aI3
aI2
aI3
aI2
aI1
aI2
aI1
aI2
aI3
aI2
aI3
aI4
aI3
aI4
aI3
aI2
aI1
aI2
aI1
aI2
aI3
aI4
aI5
aI4
aI5
aI4
aI5
aI4
aI5
aI6
aI5
aI6
aI7
aI6
aI5
aI6
aI5
aI6
aI5
aI6
aI7
aI6
aI7
aI6
aI7
aI8
aI9
aI10
aI9
aI10
aI11
aI12
aI11
aI10
aI11
aI12
aI11
aI21
aI22
aI21
aI20
aI21
aI20
aI21
aI20
aI21
aI20
aI21
aI22
aI21
aI20
aI21
aI20
aI19
aI18
aI19
aI18
aI19
aI18
aI19
aI18
aI19
aI18
aI19
aI18
aI17
aI18
aI19
aI18
aI19
aI18
aI17
aI18
aI17
aI18
aI19
aI18
aI19
aI20
aI19
aI18
aI19
aI20
aI19
aI18
aI19
aI18
aI19
aI20
aI19
aI20
aI19
aI20
aI19
aI18
aI19
aI20
aI19
aI20
aI19
aI20
aI19
aI20
aI21
aI22
aI21
aI22
aI23
aI24
aI23
aI24
aI23
aI22
aI23
aI22
aI23
aI24
aI23
aI22
aI23
aI22
aI23
aI22
aI23
aI22
aI21
aI22
aI21
aI20
aI21
aI20
aI21
aI20
aI21
aI22
aI21
aI22
aI21
aI20
aI19
aI20
aI19
aI18
aI19
aI18
aI19
aI18
aI19
aI20
aI19
aI18
aI19
aI18
aI17
aI18
aI17
aI18
aI17
aI18
aI19
aI18
aI19
aI20
aI19
aI20
aI21
aI22
aI21
aI20
aI30
aI31
aI30
aI31
aI32
aI31
aI32
aI31
aI30
aI31
aI30
aI31
aI30
aI31
aI32
aI31
aI32
aI31
aI30
aI29
aI28
aI29
aI30
aI29
aI28
aI29
aI28
aI29
aI30
aI29
aI30
aI29
aI30
aI31
aI32
aI33
aI32
aI31
aI32
aI31
aI32
aI31
aI30
aI31
aI32
aI33
aI34
aI33
aI43
aI44
aI43
aI44
aI43
aI42
aI43
aI42
aI43
aI53
aI54
aI53
aI54
aI55
aI54
aI55
aI56
aI55
aI56
aI55
aI65
aI66
aI65
aI64
aI65
aI66
aI65
aI75
aI76
aI75
aI76
aI77
aI78
aI77
aI76
aI77
aI78
aI77
aI78
aI77
aI78
aI77
aI78
aI79
aI80
aI79
aI89
a.